target datalayout = "e-m:e-p270:32:32-p271:32:32-p272:64:64-i64:64-i128:128-f80:128-n8:16:32:64-S128"
target triple = "x86_64-pc-linux-gnu"

@.str = private unnamed_addr constant [12 x i8] c"(DFVM_NULL)\00", align 1
@.str.1 = private unnamed_addr constant [13 x i8] c"IF_TRUE_GOTO\00", align 1
@.str.2 = private unnamed_addr constant [14 x i8] c"IF_FALSE_GOTO\00", align 1
@.str.3 = private unnamed_addr constant [13 x i8] c"CHECK_EXISTS\00", align 1
@.str.4 = private unnamed_addr constant [15 x i8] c"CHECK_EXISTS_R\00", align 1
@.str.5 = private unnamed_addr constant [4 x i8] c"NOT\00", align 1
@.str.6 = private unnamed_addr constant [7 x i8] c"RETURN\00", align 1
@.str.7 = private unnamed_addr constant [10 x i8] c"READ_TREE\00", align 1
@.str.8 = private unnamed_addr constant [12 x i8] c"READ_TREE_R\00", align 1
@.str.9 = private unnamed_addr constant [15 x i8] c"READ_REFERENCE\00", align 1
@.str.10 = private unnamed_addr constant [17 x i8] c"READ_REFERENCE_R\00", align 1
@.str.11 = private unnamed_addr constant [11 x i8] c"PUT_FVALUE\00", align 1
@.str.12 = private unnamed_addr constant [7 x i8] c"ALL_EQ\00", align 1
@.str.13 = private unnamed_addr constant [7 x i8] c"ANY_EQ\00", align 1
@.str.14 = private unnamed_addr constant [7 x i8] c"ALL_NE\00", align 1
@.str.15 = private unnamed_addr constant [7 x i8] c"ANY_NE\00", align 1
@.str.16 = private unnamed_addr constant [7 x i8] c"ALL_GT\00", align 1
@.str.17 = private unnamed_addr constant [7 x i8] c"ANY_GT\00", align 1
@.str.18 = private unnamed_addr constant [7 x i8] c"ALL_GE\00", align 1
@.str.19 = private unnamed_addr constant [7 x i8] c"ANY_GE\00", align 1
@.str.20 = private unnamed_addr constant [7 x i8] c"ALL_LT\00", align 1
@.str.21 = private unnamed_addr constant [7 x i8] c"ANY_LT\00", align 1
@.str.22 = private unnamed_addr constant [7 x i8] c"ALL_LE\00", align 1
@.str.23 = private unnamed_addr constant [7 x i8] c"ANY_LE\00", align 1
@.str.24 = private unnamed_addr constant [13 x i8] c"ALL_CONTAINS\00", align 1
@.str.25 = private unnamed_addr constant [13 x i8] c"ANY_CONTAINS\00", align 1
@.str.26 = private unnamed_addr constant [12 x i8] c"ALL_MATCHES\00", align 1
@.str.27 = private unnamed_addr constant [12 x i8] c"ANY_MATCHES\00", align 1
@.str.28 = private unnamed_addr constant [11 x i8] c"SET_ALL_IN\00", align 1
@.str.29 = private unnamed_addr constant [11 x i8] c"SET_ANY_IN\00", align 1
@.str.30 = private unnamed_addr constant [15 x i8] c"SET_ALL_NOT_IN\00", align 1
@.str.31 = private unnamed_addr constant [15 x i8] c"SET_ANY_NOT_IN\00", align 1
@.str.32 = private unnamed_addr constant [8 x i8] c"SET_ADD\00", align 1
@.str.33 = private unnamed_addr constant [14 x i8] c"SET_ADD_RANGE\00", align 1
@.str.34 = private unnamed_addr constant [10 x i8] c"SET_CLEAR\00", align 1
@.str.35 = private unnamed_addr constant [6 x i8] c"SLICE\00", align 1
@.str.36 = private unnamed_addr constant [7 x i8] c"LENGTH\00", align 1
@.str.37 = private unnamed_addr constant [13 x i8] c"VALUE_STRING\00", align 1
@.str.38 = private unnamed_addr constant [12 x i8] c"BITWISE_AND\00", align 1
@.str.39 = private unnamed_addr constant [12 x i8] c"UNARY_MINUS\00", align 1
@.str.40 = private unnamed_addr constant [4 x i8] c"ADD\00", align 1
@.str.41 = private unnamed_addr constant [9 x i8] c"SUBTRACT\00", align 1
@.str.42 = private unnamed_addr constant [9 x i8] c"MULTIPLY\00", align 1
@.str.43 = private unnamed_addr constant [7 x i8] c"DIVIDE\00", align 1
@.str.44 = private unnamed_addr constant [7 x i8] c"MODULO\00", align 1
@.str.45 = private unnamed_addr constant [14 x i8] c"CALL_FUNCTION\00", align 1
@.str.46 = private unnamed_addr constant [11 x i8] c"STACK_PUSH\00", align 1
@.str.47 = private unnamed_addr constant [10 x i8] c"STACK_POP\00", align 1
@.str.48 = private unnamed_addr constant [13 x i8] c"NOT_ALL_ZERO\00", align 1
@.str.49 = private unnamed_addr constant [6 x i8] c"NO_OP\00", align 1
@.str.50 = private unnamed_addr constant [20 x i8] c"(fix-opcode-string)\00", align 1

; Function Attrs: nounwind uwtable
define hidden ptr @dfvm_opcode_tostr(i32 noundef %0) #0 {
  %2 = alloca ptr, align 8
  %3 = alloca i32, align 4
  store i32 %0, ptr %3, align 4
  %4 = load i32, ptr %3, align 4
  switch i32 %4, label %55 [
    i32 0, label %5
    i32 1, label %6
    i32 2, label %7
    i32 3, label %8
    i32 4, label %9
    i32 5, label %10
    i32 6, label %11
    i32 7, label %12
    i32 8, label %13
    i32 9, label %14
    i32 10, label %15
    i32 11, label %16
    i32 12, label %17
    i32 13, label %18
    i32 14, label %19
    i32 15, label %20
    i32 16, label %21
    i32 17, label %22
    i32 18, label %23
    i32 19, label %24
    i32 20, label %25
    i32 21, label %26
    i32 22, label %27
    i32 23, label %28
    i32 24, label %29
    i32 25, label %30
    i32 26, label %31
    i32 27, label %32
    i32 28, label %33
    i32 29, label %34
    i32 30, label %35
    i32 31, label %36
    i32 32, label %37
    i32 33, label %38
    i32 34, label %39
    i32 35, label %40
    i32 36, label %41
    i32 37, label %42
    i32 38, label %43
    i32 39, label %44
    i32 40, label %45
    i32 41, label %46
    i32 42, label %47
    i32 43, label %48
    i32 44, label %49
    i32 45, label %50
    i32 46, label %51
    i32 47, label %52
    i32 48, label %53
    i32 49, label %54
  ]

5:                                                ; preds = %1
  store ptr @.str, ptr %2, align 8
  br label %56

6:                                                ; preds = %1
  store ptr @.str.1, ptr %2, align 8
  br label %56

7:                                                ; preds = %1
  store ptr @.str.2, ptr %2, align 8
  br label %56

8:                                                ; preds = %1
  store ptr @.str.3, ptr %2, align 8
  br label %56

9:                                                ; preds = %1
  store ptr @.str.4, ptr %2, align 8
  br label %56

10:                                               ; preds = %1
  store ptr @.str.5, ptr %2, align 8
  br label %56

11:                                               ; preds = %1
  store ptr @.str.6, ptr %2, align 8
  br label %56

12:                                               ; preds = %1
  store ptr @.str.7, ptr %2, align 8
  br label %56

13:                                               ; preds = %1
  store ptr @.str.8, ptr %2, align 8
  br label %56

14:                                               ; preds = %1
  store ptr @.str.9, ptr %2, align 8
  br label %56

15:                                               ; preds = %1
  store ptr @.str.10, ptr %2, align 8
  br label %56

16:                                               ; preds = %1
  store ptr @.str.11, ptr %2, align 8
  br label %56

17:                                               ; preds = %1
  store ptr @.str.12, ptr %2, align 8
  br label %56

18:                                               ; preds = %1
  store ptr @.str.13, ptr %2, align 8
  br label %56

19:                                               ; preds = %1
  store ptr @.str.14, ptr %2, align 8
  br label %56

20:                                               ; preds = %1
  store ptr @.str.15, ptr %2, align 8
  br label %56

21:                                               ; preds = %1
  store ptr @.str.16, ptr %2, align 8
  br label %56

22:                                               ; preds = %1
  store ptr @.str.17, ptr %2, align 8
  br label %56

23:                                               ; preds = %1
  store ptr @.str.18, ptr %2, align 8
  br label %56

24:                                               ; preds = %1
  store ptr @.str.19, ptr %2, align 8
  br label %56

25:                                               ; preds = %1
  store ptr @.str.20, ptr %2, align 8
  br label %56

26:                                               ; preds = %1
  store ptr @.str.21, ptr %2, align 8
  br label %56

27:                                               ; preds = %1
  store ptr @.str.22, ptr %2, align 8
  br label %56

28:                                               ; preds = %1
  store ptr @.str.23, ptr %2, align 8
  br label %56

29:                                               ; preds = %1
  store ptr @.str.24, ptr %2, align 8
  br label %56

30:                                               ; preds = %1
  store ptr @.str.25, ptr %2, align 8
  br label %56

31:                                               ; preds = %1
  store ptr @.str.26, ptr %2, align 8
  br label %56

32:                                               ; preds = %1
  store ptr @.str.27, ptr %2, align 8
  br label %56

33:                                               ; preds = %1
  store ptr @.str.28, ptr %2, align 8
  br label %56

34:                                               ; preds = %1
  store ptr @.str.29, ptr %2, align 8
  br label %56

35:                                               ; preds = %1
  store ptr @.str.30, ptr %2, align 8
  br label %56

36:                                               ; preds = %1
  store ptr @.str.31, ptr %2, align 8
  br label %56

37:                                               ; preds = %1
  store ptr @.str.32, ptr %2, align 8
  br label %56

38:                                               ; preds = %1
  store ptr @.str.33, ptr %2, align 8
  br label %56

39:                                               ; preds = %1
  store ptr @.str.34, ptr %2, align 8
  br label %56

40:                                               ; preds = %1
  store ptr @.str.35, ptr %2, align 8
  br label %56

41:                                               ; preds = %1
  store ptr @.str.36, ptr %2, align 8
  br label %56

42:                                               ; preds = %1
  store ptr @.str.37, ptr %2, align 8
  br label %56

43:                                               ; preds = %1
  store ptr @.str.38, ptr %2, align 8
  br label %56

44:                                               ; preds = %1
  store ptr @.str.39, ptr %2, align 8
  br label %56

45:                                               ; preds = %1
  store ptr @.str.40, ptr %2, align 8
  br label %56

46:                                               ; preds = %1
  store ptr @.str.41, ptr %2, align 8
  br label %56

47:                                               ; preds = %1
  store ptr @.str.42, ptr %2, align 8
  br label %56

48:                                               ; preds = %1
  store ptr @.str.43, ptr %2, align 8
  br label %56

49:                                               ; preds = %1
  store ptr @.str.44, ptr %2, align 8
  br label %56

50:                                               ; preds = %1
  store ptr @.str.45, ptr %2, align 8
  br label %56

51:                                               ; preds = %1
  store ptr @.str.46, ptr %2, align 8
  br label %56

52:                                               ; preds = %1
  store ptr @.str.47, ptr %2, align 8
  br label %56

53:                                               ; preds = %1
  store ptr @.str.48, ptr %2, align 8
  br label %56

54:                                               ; preds = %1
  store ptr @.str.49, ptr %2, align 8
  br label %56

55:                                               ; preds = %1
  store ptr @.str.50, ptr %2, align 8
  br label %56

56:                                               ; preds = %55, %54, %53, %52, %51, %50, %49, %48, %47, %46, %45, %44, %43, %42, %41, %40, %39, %38, %37, %36, %35, %34, %33, %32, %31, %30, %29, %28, %27, %26, %25, %24, %23, %22, %21, %20, %19, %18, %17, %16, %15, %14, %13, %12, %11, %10, %9, %8, %7, %6, %5
  %57 = load ptr, ptr %2, align 8
  ret ptr %57
}